; Function Attrs: nounwind uwtable
define ptr @l_Lean_Compiler_LCNF_floatLetIn___boxed(ptr noundef %0, ptr noundef %1) local_unnamed_addr #1 {
  %3 = ptrtoint ptr %0 to i64
  %4 = and i64 %3, 1
  %.not = icmp eq i64 %4, 0
  br i1 %.not, label %5, label %lean_dec.exit

5:                                                ; preds = %2
  %6 = load i32, ptr %0, align 4, !tbaa !8
  %7 = icmp sgt i32 %6, 1
  br i1 %7, label %8, label %10, !prof !11

8:                                                ; preds = %5
  %9 = add nsw i32 %6, -1
  store i32 %9, ptr %0, align 4, !tbaa !8
  br label %lean_dec.exit

10:                                               ; preds = %5
  %.not.i = icmp eq i32 %6, 0
  br i1 %.not.i, label %lean_dec.exit, label %11

11:                                               ; preds = %10
  tail call void @lean_dec_ref_cold(ptr noundef nonnull %0) #4
  br label %lean_dec.exit

lean_dec.exit:                                    ; preds = %11, %10, %8, %2
  %12 = lshr i64 %3, 1
  %13 = trunc i64 %12 to i8
  %14 = load ptr, ptr @l_Lean_Compiler_LCNF_floatLetIn___closed__1, align 8, !tbaa !4
  %15 = load ptr, ptr @l_Lean_Compiler_LCNF_floatLetIn___closed__2, align 8, !tbaa !4
  %16 = tail call ptr @l_Lean_Compiler_LCNF_Pass_mkPerDeclaration(ptr noundef %14, ptr noundef %15, i8 noundef zeroext %13, ptr noundef %1) #4
  ret ptr %16
}